; Function Attrs: mustprogress nounwind uwtable
define void @_ZN3net22QuicPacketPublicHeaderD2Ev(ptr noundef nonnull readonly align 8 captures(none) dereferenceable(48) %0) unnamed_addr #5 align 2 personality ptr @__gxx_personality_v0 {
  %2 = getelementptr inbounds nuw i8, ptr %0, i64 16
  %3 = load ptr, ptr %2, align 8, !tbaa !31
  %.not.i.i.i = icmp eq ptr %3, null
  br i1 %.not.i.i.i, label %_ZNSt6vectorIN3net11QuicVersionESaIS1_EED2Ev.exit, label %4

4:                                                ; preds = %1
  tail call void @_ZdlPv(ptr noundef nonnull %3) #29
  br label %_ZNSt6vectorIN3net11QuicVersionESaIS1_EED2Ev.exit

_ZNSt6vectorIN3net11QuicVersionESaIS1_EED2Ev.exit: ; preds = %1, %4
  ret void
}